target datalayout = "e-m:e-p270:32:32-p271:32:32-p272:64:64-i64:64-i128:128-f80:128-n8:16:32:64-S128"
target triple = "x86_64-pc-linux-gnu"

%struct._object = type { %union.anon, ptr }
%union.anon = type { i64 }
%struct._typeobject = type { %struct.PyVarObject, ptr, i64, i64, ptr, i64, ptr, ptr, ptr, ptr, ptr, ptr, ptr, ptr, ptr, ptr, ptr, ptr, ptr, i64, ptr, ptr, ptr, ptr, i64, ptr, ptr, ptr, ptr, ptr, ptr, ptr, ptr, ptr, i64, ptr, ptr, ptr, ptr, ptr, ptr, ptr, ptr, ptr, ptr, ptr, i32, ptr, ptr, i8, i16 }
%struct.PyVarObject = type { %struct._object, i64 }
%struct.anon = type { i32, i32 }

@.str.32 = private unnamed_addr constant [40 x i8] c"../cpython/Modules/_testcapi/watchers.c\00", align 1
@_Py_NoneStruct = external global %struct._object, align 8
@.str.51 = private unnamed_addr constant [25 x i8] c"PyLong_Check(watcher_id)\00", align 1
@context_watcher_ids = internal global [2 x i32] [i32 -1, i32 -1], align 4
@context_switches = internal global [2 x ptr] zeroinitializer, align 16
@__PRETTY_FUNCTION__.clear_context_watcher = private unnamed_addr constant [56 x i8] c"PyObject *clear_context_watcher(PyObject *, PyObject *)\00", align 1

; Function Attrs: alwaysinline nounwind uwtable
define internal i32 @_Py_IsImmortal(ptr noundef %0) #5 {
  %2 = alloca ptr, align 8
  store ptr %0, ptr %2, align 8, !tbaa !3
  %3 = load ptr, ptr %2, align 8, !tbaa !3
  %4 = getelementptr inbounds nuw %struct._object, ptr %3, i32 0, i32 0
  %5 = getelementptr inbounds nuw %struct.anon, ptr %4, i32 0, i32 0
  %6 = load i32, ptr %5, align 8, !tbaa !52
  %7 = icmp slt i32 %6, 0
  %8 = zext i1 %7 to i32
  ret i32 %8
}

; Function Attrs: alwaysinline nounwind uwtable
define internal void @Py_DECREF(ptr noundef %0) #5 {
  %2 = alloca ptr, align 8
  store ptr %0, ptr %2, align 8, !tbaa !3
  %3 = load ptr, ptr %2, align 8, !tbaa !3
  %4 = call i32 @_Py_IsImmortal(ptr noundef %3)
  %5 = icmp ne i32 %4, 0
  br i1 %5, label %6, label %7

6:                                                ; preds = %1
  br label %16

7:                                                ; preds = %1
  %8 = load ptr, ptr %2, align 8, !tbaa !3
  %9 = getelementptr inbounds nuw %struct._object, ptr %8, i32 0, i32 0
  %10 = getelementptr inbounds nuw %struct.anon, ptr %9, i32 0, i32 0
  %11 = load i32, ptr %10, align 8, !tbaa !52
  %12 = add i32 %11, -1
  store i32 %12, ptr %10, align 8, !tbaa !52
  %13 = icmp eq i32 %12, 0
  br i1 %13, label %14, label %16

14:                                               ; preds = %7
  %15 = load ptr, ptr %2, align 8, !tbaa !3
  call void @_Py_Dealloc(ptr noundef %15)
  br label %16

16:                                               ; preds = %6, %14, %7
  ret void
}

; Function Attrs: inlinehint nounwind uwtable
define internal i32 @PyType_HasFeature(ptr noundef %0, i64 noundef %1) #3 {
  %3 = alloca ptr, align 8
  %4 = alloca i64, align 8
  %5 = alloca i64, align 8
  store ptr %0, ptr %3, align 8, !tbaa !43
  store i64 %1, ptr %4, align 8, !tbaa !12
  call void @llvm.lifetime.start.p0(i64 8, ptr %5) #6
  %6 = load ptr, ptr %3, align 8, !tbaa !43
  %7 = getelementptr inbounds nuw %struct._typeobject, ptr %6, i32 0, i32 19
  %8 = load i64, ptr %7, align 8, !tbaa !44
  store i64 %8, ptr %5, align 8, !tbaa !12
  %9 = load i64, ptr %5, align 8, !tbaa !12
  %10 = load i64, ptr %4, align 8, !tbaa !12
  %11 = and i64 %9, %10
  %12 = icmp ne i64 %11, 0
  %13 = zext i1 %12 to i32
  call void @llvm.lifetime.end.p0(i64 8, ptr %5) #6
  ret i32 %13
}

; Function Attrs: inlinehint nounwind uwtable
define internal ptr @_Py_TYPE(ptr noundef %0) #3 {
  %2 = alloca ptr, align 8
  store ptr %0, ptr %2, align 8, !tbaa !3
  %3 = load ptr, ptr %2, align 8, !tbaa !3
  %4 = getelementptr inbounds nuw %struct._object, ptr %3, i32 0, i32 1
  %5 = load ptr, ptr %4, align 8, !tbaa !51
  ret ptr %5
}

; Function Attrs: nounwind uwtable
define internal ptr @clear_context_watcher(ptr noundef %0, ptr noundef %1) #0 {
  %3 = alloca ptr, align 8
  %4 = alloca ptr, align 8
  %5 = alloca ptr, align 8
  %6 = alloca i64, align 8
  %7 = alloca i32, align 4
  %8 = alloca i32, align 4
  %9 = alloca ptr, align 8
  %10 = alloca ptr, align 8
  store ptr %0, ptr %4, align 8, !tbaa !3
  store ptr %1, ptr %5, align 8, !tbaa !3
  %11 = load ptr, ptr %5, align 8, !tbaa !3
  %12 = call ptr @_Py_TYPE(ptr noundef %11)
  %13 = call i32 @PyType_HasFeature(ptr noundef %12, i64 noundef 16777216)
  %14 = icmp ne i32 %13, 0
  br i1 %14, label %15, label %16

15:                                               ; preds = %2
  br label %18

16:                                               ; preds = %2
  call void @__assert_fail(ptr noundef @.str.51, ptr noundef @.str.32, i32 noundef 696, ptr noundef @__PRETTY_FUNCTION__.clear_context_watcher) #7
  unreachable

17:                                               ; No predecessors!
  br label %18

18:                                               ; preds = %17, %15
  call void @llvm.lifetime.start.p0(i64 8, ptr %6) #6
  %19 = load ptr, ptr %5, align 8, !tbaa !3
  %20 = call i64 @PyLong_AsLong(ptr noundef %19)
  store i64 %20, ptr %6, align 8, !tbaa !12
  %21 = load i64, ptr %6, align 8, !tbaa !12
  %22 = trunc i64 %21 to i32
  %23 = call i32 @PyContext_ClearWatcher(i32 noundef %22)
  %24 = icmp slt i32 %23, 0
  br i1 %24, label %25, label %26

25:                                               ; preds = %18
  store ptr null, ptr %3, align 8
  store i32 1, ptr %7, align 4
  br label %66

26:                                               ; preds = %18
  %27 = load i64, ptr %6, align 8, !tbaa !12
  %28 = icmp sge i64 %27, 0
  br i1 %28, label %29, label %65

29:                                               ; preds = %26
  call void @llvm.lifetime.start.p0(i64 4, ptr %8) #6
  store i32 0, ptr %8, align 4, !tbaa !10
  br label %30

30:                                               ; preds = %61, %29
  %31 = load i32, ptr %8, align 4, !tbaa !10
  %32 = icmp slt i32 %31, 2
  br i1 %32, label %34, label %33

33:                                               ; preds = %30
  store i32 2, ptr %7, align 4
  call void @llvm.lifetime.end.p0(i64 4, ptr %8) #6
  br label %64

34:                                               ; preds = %30
  %35 = load i64, ptr %6, align 8, !tbaa !12
  %36 = load i32, ptr %8, align 4, !tbaa !10
  %37 = sext i32 %36 to i64
  %38 = getelementptr [2 x i32], ptr @context_watcher_ids, i64 0, i64 %37
  %39 = load i32, ptr %38, align 4, !tbaa !10
  %40 = sext i32 %39 to i64
  %41 = icmp eq i64 %35, %40
  br i1 %41, label %42, label %60

42:                                               ; preds = %34
  %43 = load i32, ptr %8, align 4, !tbaa !10
  %44 = sext i32 %43 to i64
  %45 = getelementptr [2 x i32], ptr @context_watcher_ids, i64 0, i64 %44
  store i32 -1, ptr %45, align 4, !tbaa !10
  br label %46

46:                                               ; preds = %42
  call void @llvm.lifetime.start.p0(i64 8, ptr %9) #6
  %47 = load i32, ptr %8, align 4, !tbaa !10
  %48 = sext i32 %47 to i64
  %49 = getelementptr [2 x ptr], ptr @context_switches, i64 0, i64 %48
  store ptr %49, ptr %9, align 8, !tbaa !14
  call void @llvm.lifetime.start.p0(i64 8, ptr %10) #6
  %50 = load ptr, ptr %9, align 8, !tbaa !14
  %51 = load ptr, ptr %50, align 8, !tbaa !3
  store ptr %51, ptr %10, align 8, !tbaa !3
  %52 = load ptr, ptr %10, align 8, !tbaa !3
  %53 = icmp ne ptr %52, null
  br i1 %53, label %54, label %57

54:                                               ; preds = %46
  %55 = load ptr, ptr %9, align 8, !tbaa !14
  store ptr null, ptr %55, align 8, !tbaa !3
  %56 = load ptr, ptr %10, align 8, !tbaa !3
  call void @Py_DECREF(ptr noundef %56)
  br label %57

57:                                               ; preds = %54, %46
  call void @llvm.lifetime.end.p0(i64 8, ptr %10) #6
  call void @llvm.lifetime.end.p0(i64 8, ptr %9) #6
  br label %58

58:                                               ; preds = %57
  br label %59

59:                                               ; preds = %58
  br label %60

60:                                               ; preds = %59, %34
  br label %61

61:                                               ; preds = %60
  %62 = load i32, ptr %8, align 4, !tbaa !10
  %63 = add i32 %62, 1
  store i32 %63, ptr %8, align 4, !tbaa !10
  br label %30, !llvm.loop !25

64:                                               ; preds = %33
  br label %65

65:                                               ; preds = %64, %26
  store ptr @_Py_NoneStruct, ptr %3, align 8
  store i32 1, ptr %7, align 4
  br label %66

66:                                               ; preds = %65, %25
  call void @llvm.lifetime.end.p0(i64 8, ptr %6) #6
  %67 = load ptr, ptr %3, align 8
  ret ptr %67
}