; Function Attrs: nounwind uwtable
define internal noundef ptr @clear_context_watcher(ptr readnone captures(none) %0, ptr noundef %1) #0 {
  %3 = getelementptr i8, ptr %1, i64 8
  %.val = load ptr, ptr %3, align 8, !tbaa !3
  %4 = getelementptr i8, ptr %.val, i64 168
  %.val18 = load i64, ptr %4, align 8, !tbaa !9
  %5 = and i64 %.val18, 16777216
  %.not = icmp eq i64 %5, 0
  br i1 %.not, label %6, label %7

6:                                                ; preds = %2
  tail call void @__assert_fail(ptr noundef nonnull @.str.51, ptr noundef nonnull @.str.32, i32 noundef 696, ptr noundef nonnull @__PRETTY_FUNCTION__.clear_context_watcher) #7
  unreachable

7:                                                ; preds = %2
  %8 = tail call i64 @PyLong_AsLong(ptr noundef nonnull %1) #6
  %9 = trunc i64 %8 to i32
  %10 = tail call i32 @PyContext_ClearWatcher(i32 noundef %9) #6
  %11 = icmp slt i32 %10, 0
  br i1 %11, label %.loopexit, label %12

12:                                               ; preds = %7
  %13 = icmp sgt i64 %8, -1
  br i1 %13, label %.preheader, label %.loopexit

.preheader:                                       ; preds = %12, %Py_DECREF.exit
  %14 = phi i1 [ false, %Py_DECREF.exit ], [ true, %12 ]
  %indvars.iv = phi i64 [ 1, %Py_DECREF.exit ], [ 0, %12 ]
  %15 = getelementptr [2 x i32], ptr @context_watcher_ids, i64 0, i64 %indvars.iv
  %16 = load i32, ptr %15, align 4, !tbaa !20
  %17 = sext i32 %16 to i64
  %18 = icmp eq i64 %8, %17
  br i1 %18, label %19, label %Py_DECREF.exit

19:                                               ; preds = %.preheader
  store i32 -1, ptr %15, align 4, !tbaa !20
  %20 = getelementptr [2 x ptr], ptr @context_switches, i64 0, i64 %indvars.iv
  %21 = load ptr, ptr %20, align 8, !tbaa !21
  %.not17 = icmp eq ptr %21, null
  br i1 %.not17, label %Py_DECREF.exit, label %22

22:                                               ; preds = %19
  store ptr null, ptr %20, align 8, !tbaa !21
  %23 = load i32, ptr %21, align 8, !tbaa !22
  %.not.i = icmp sgt i32 %23, -1
  br i1 %.not.i, label %24, label %Py_DECREF.exit

24:                                               ; preds = %22
  %25 = add nsw i32 %23, -1
  store i32 %25, ptr %21, align 8, !tbaa !22
  %26 = icmp eq i32 %25, 0
  br i1 %26, label %27, label %Py_DECREF.exit

27:                                               ; preds = %24
  tail call void @_Py_Dealloc(ptr noundef nonnull %21) #6
  br label %Py_DECREF.exit

Py_DECREF.exit:                                   ; preds = %27, %24, %22, %19, %.preheader
  br i1 %14, label %.preheader, label %.loopexit, !llvm.loop !32

.loopexit:                                        ; preds = %Py_DECREF.exit, %12, %7
  %.0 = phi ptr [ null, %7 ], [ @_Py_NoneStruct, %12 ], [ @_Py_NoneStruct, %Py_DECREF.exit ]
  ret ptr %.0
}